Certificate:
    Data:
        Version: 3 (0x2)
        Serial Number: 0 (0x0)
        Signature Algorithm: md5WithRSAEncryption
        Issuer: CN=Demo CA
        Validity
            Not Before: Jun  1 13:59:04 2010 GMT
            Not After : May 29 13:59:04 2020 GMT
        Subject: CN=Demo CA
        Subject Public Key Info:
            Public Key Algorithm: rsaEncryption
            RSA Public Key: (1024 bit)
                Modulus (1024 bit):
                    00:c8:60:71:28:1b:f4:29:05:ba:8c:ed:c1:93:39:
                    a5:08:53:c8:1b:0b:ae:8d:df:da:9b:f2:2f:0c:a3:
                    05:c5:de:6b:1e:93:33:f5:da:a3:38:c8:3b:94:ff:
                    03:ca:b2:4c:1c:45:74:a4:e2:59:fc:a4:d2:dc:cf:
                    ca:19:39:55:53:cd:66:0c:5f:b8:ec:59:6f:1e:70:
                    02:05:9d:6c:7d:89:18:c2:23:48:78:f5:22:e6:40:
                    e8:3b:48:52:c3:2f:e0:87:2a:63:dc:ae:cd:0f:97:
                    8b:e0:d0:bc:8f:5a:19:bd:36:25:b2:e0:52:6d:ae:
                    68:50:69:74:d6:95:e5:52:ff
                Exponent: 65537 (0x10001)
        X509v3 extensions:
            X509v3 Subject Key Identifier: 
                64:D8:7B:C4:39:46:10:EE:F6:88:F0:E2:8C:C9:6B:D7:0E:1D:85:1B
            X509v3 Authority Key Identifier: 
                keyid:64:D8:7B:C4:39:46:10:EE:F6:88:F0:E2:8C:C9:6B:D7:0E:1D:85:1B
                DirName:/CN=Demo CA
                serial:00

            X509v3 Basic Constraints: 
                CA:TRUE
            X509v3 Key Usage: 
                Certificate Sign, CRL Sign
    Signature Algorithm: md5WithRSAEncryption
        b5:0e:4b:1d:21:fd:49:13:76:bb:e2:a2:bc:72:ab:f9:a4:9f:
        48:9b:11:e0:7b:7e:f1:f2:f7:3e:b4:96:06:d5:aa:fe:dc:ce:
        62:01:d2:55:d2:00:d4:77:2f:7b:34:e7:05:3f:d4:52:9d:55:
        53:94:f9:8f:80:30:4c:9b:8e:8b:70:7d:08:9e:ef:7f:18:d0:
        db:6c:40:9f:ae:aa:a9:16:12:2b:23:58:f1:48:0d:56:66:21:
        03:cc:e8:69:17:ca:a8:0c:13:5d:61:b9:1b:57:d6:c6:63:b3:
        fa:52:ea:72:19:3b:d3:5b:10:c3:e4:5a:a6:9d:50:08:cb:d4:
        9b:7e
-----BEGIN CERTIFICATE-----
MIICEjCCAXugAwIBAgIBADANBgkqhkiG9w0BAQQFADASMRAwDgYDVQQDEwdEZW1v
IENBMB4XDTEwMDYwMTEzNTkwNFoXDTIwMDUyOTEzNTkwNFowEjEQMA4GA1UEAxMH
RGVtbyBDQTCBnzANBgkqhkiG9w0BAQEFAAOBjQAwgYkCgYEAyGBxKBv0KQW6jO3B
kzmlCFPIGwuujd/am/IvDKMFxd5rHpMz9dqjOMg7lP8DyrJMHEV0pOJZ/KTS3M/K
GTlVU81mDF+47FlvHnACBZ1sfYkYwiNIePUi5kDoO0hSwy/ghypj3K7ND5eL4NC8
j1oZvTYlsuBSba5oUGl01pXlUv8CAwEAAaN4MHYwHQYDVR0OBBYEFGTYe8Q5RhDu
9ojw4ozJa9cOHYUbMDoGA1UdIwQzMDGAFGTYe8Q5RhDu9ojw4ozJa9cOHYUboRak
FDASMRAwDgYDVQQDEwdEZW1vIENBggEAMAwGA1UdEwQFMAMBAf8wCwYDVR0PBAQD
AgEGMA0GCSqGSIb3DQEBBAUAA4GBALUOSx0h/UkTdrviorxyq/mkn0ibEeB7fvHy
9z60lgbVqv7czmIB0lXSANR3L3s05wU/1FKdVVOU+Y+AMEybjotwfQie738Y0Nts
QJ+uqqkWEisjWPFIDVZmIQPM6GkXyqgME11huRtX1sZjs/pS6nIZO9NbEMPkWqad
UAjL1Jt+
-----END CERTIFICATE-----
