Certificate:
    Data:
        Version: 3 (0x2)
        Serial Number: 1 (0x1)
        Signature Algorithm: md5WithRSAEncryption
        Issuer: CN=Demo CA
        Validity
            Not Before: Jun  1 14:15:45 2010 GMT
            Not After : May 29 14:15:45 2020 GMT
        Subject: CN=Demo user
        Subject Public Key Info:
            Public Key Algorithm: rsaEncryption
            RSA Public Key: (1024 bit)
                Modulus (1024 bit):
                    00:9e:6f:58:89:b0:83:d9:fe:e7:65:a5:fa:1e:8d:
                    52:84:bc:b5:a4:eb:96:b8:1d:6a:2b:61:81:67:6c:
                    ba:f5:77:86:06:d9:df:a9:3c:1a:b5:1a:32:e4:a0:
                    34:cd:19:a3:d9:90:35:87:eb:95:e2:10:62:7c:cc:
                    33:63:be:cd:18:01:dd:e1:f3:50:da:cb:30:f1:5c:
                    87:ef:a5:db:47:1a:51:57:2c:b0:fe:2e:96:7c:cd:
                    fe:e8:bf:ab:f7:a4:92:d2:67:6f:30:dc:14:a2:0d:
                    ec:8b:46:da:ac:bd:4c:e3:3c:e3:7c:5c:79:d4:ed:
                    88:c3:77:cb:15:4c:92:27:c3
                Exponent: 65537 (0x10001)
        X509v3 extensions:
            X509v3 Basic Constraints: 
                CA:FALSE
            Netscape Comment: 
                OpenSSL Generated Certificate
            X509v3 Subject Key Identifier: 
                C7:F2:21:5D:CC:05:9B:8A:4B:53:44:54:39:9A:F8:3F:B9:06:37:B5
            X509v3 Authority Key Identifier: 
                keyid:64:D8:7B:C4:39:46:10:EE:F6:88:F0:E2:8C:C9:6B:D7:0E:1D:85:1B
                DirName:/CN=Demo CA
                serial:00

            Authority Information Access: 
                OCSP - URI:http://localhost:8888/

    Signature Algorithm: md5WithRSAEncryption
        34:78:83:ce:ac:5c:49:a0:ce:f8:97:e0:2c:3b:b8:b5:51:48:
        92:c7:14:94:d1:c7:93:07:33:5d:20:8f:c0:f5:c9:0c:8f:c8:
        6e:db:93:e9:2c:87:b4:4b:14:e7:64:a7:cc:b0:4f:de:fa:c1:
        e3:0c:a6:ff:b3:1b:fa:fa:74:f3:b4:ee:02:4f:1f:14:8f:1c:
        ec:c7:95:00:12:c7:e9:ea:a4:58:aa:3c:ce:c0:06:6a:f4:91:
        93:cf:af:33:15:8f:b1:d8:1a:74:92:ee:fe:dd:66:8a:17:5d:
        32:c2:fb:77:03:60:ac:62:d3:c9:8e:06:c0:99:bf:c3:e4:59:
        c0:90
-----BEGIN CERTIFICATE-----
MIICaDCCAdGgAwIBAgIBATANBgkqhkiG9w0BAQQFADASMRAwDgYDVQQDEwdEZW1v
IENBMB4XDTEwMDYwMTE0MTU0NVoXDTIwMDUyOTE0MTU0NVowFDESMBAGA1UEAxMJ
RGVtbyB1c2VyMIGfMA0GCSqGSIb3DQEBAQUAA4GNADCBiQKBgQCeb1iJsIPZ/udl
pfoejVKEvLWk65a4HWorYYFnbLr1d4YG2d+pPBq1GjLkoDTNGaPZkDWH65XiEGJ8
zDNjvs0YAd3h81DayzDxXIfvpdtHGlFXLLD+LpZ8zf7ov6v3pJLSZ28w3BSiDeyL
RtqsvUzjPON8XHnU7YjDd8sVTJInwwIDAQABo4HLMIHIMAkGA1UdEwQCMAAwLAYJ
YIZIAYb4QgENBB8WHU9wZW5TU0wgR2VuZXJhdGVkIENlcnRpZmljYXRlMB0GA1Ud
DgQWBBTH8iFdzAWbiktTRFQ5mvg/uQY3tTA6BgNVHSMEMzAxgBRk2HvEOUYQ7vaI
8OKMyWvXDh2FG6EWpBQwEjEQMA4GA1UEAxMHRGVtbyBDQYIBADAyBggrBgEFBQcB
AQQmMCQwIgYIKwYBBQUHMAGGFmh0dHA6Ly9sb2NhbGhvc3Q6ODg4OC8wDQYJKoZI
hvcNAQEEBQADgYEANHiDzqxcSaDO+JfgLDu4tVFIkscUlNHHkwczXSCPwPXJDI/I
btuT6SyHtEsU52SnzLBP3vrB4wym/7Mb+vp087TuAk8fFI8c7MeVABLH6eqkWKo8
zsAGavSRk8+vMxWPsdgadJLu/t1mihddMsL7dwNgrGLTyY4GwJm/w+RZwJA=
-----END CERTIFICATE-----
